target datalayout = "e-m:e-p270:32:32-p271:32:32-p272:64:64-i64:64-i128:128-f80:128-n8:16:32:64-S128"
target triple = "x86_64-pc-linux-gnu"

%struct.bipbuf_t = type { i64, i32, i32, i32, i32, [0 x i8] }

; Function Attrs: nounwind uwtable
define dso_local void @bipbuf_init(ptr noundef %0, i32 noundef %1) #0 {
  %3 = alloca ptr, align 8
  %4 = alloca i32, align 4
  store ptr %0, ptr %3, align 8, !tbaa !4
  store i32 %1, ptr %4, align 4, !tbaa !8
  %5 = load ptr, ptr %3, align 8, !tbaa !4
  %6 = getelementptr inbounds nuw %struct.bipbuf_t, ptr %5, i32 0, i32 3
  store i32 0, ptr %6, align 8, !tbaa !8
  %7 = load ptr, ptr %3, align 8, !tbaa !4
  %8 = getelementptr inbounds nuw %struct.bipbuf_t, ptr %7, i32 0, i32 2
  store i32 0, ptr %8, align 4, !tbaa !8
  %9 = load ptr, ptr %3, align 8, !tbaa !4
  %10 = getelementptr inbounds nuw %struct.bipbuf_t, ptr %9, i32 0, i32 1
  store i32 0, ptr %10, align 8, !tbaa !8
  %11 = load i32, ptr %4, align 4, !tbaa !8
  %12 = zext i32 %11 to i64
  %13 = load ptr, ptr %3, align 8, !tbaa !4
  %14 = getelementptr inbounds nuw %struct.bipbuf_t, ptr %13, i32 0, i32 0
  store i64 %12, ptr %14, align 8, !tbaa !10
  %15 = load ptr, ptr %3, align 8, !tbaa !4
  %16 = getelementptr inbounds nuw %struct.bipbuf_t, ptr %15, i32 0, i32 4
  store i32 0, ptr %16, align 4, !tbaa !8
  ret void
}

; Function Attrs: nounwind uwtable
define internal i64 @bipbuf_sizeof(i32 noundef %0) #0 {
  %2 = alloca i32, align 4
  store i32 %0, ptr %2, align 4, !tbaa !8
  %3 = load i32, ptr %2, align 4, !tbaa !8
  %4 = zext i32 %3 to i64
  %5 = add i64 24, %4
  ret i64 %5
}

; Function Attrs: nounwind uwtable
define dso_local ptr @bipbuf_new(i32 noundef %0) #0 {
  %2 = alloca ptr, align 8
  %3 = alloca i32, align 4
  %4 = alloca ptr, align 8
  %5 = alloca i32, align 4
  store i32 %0, ptr %3, align 4, !tbaa !8
  call void @llvm.lifetime.start.p0(i64 8, ptr %4) #5
  %6 = load i32, ptr %3, align 4, !tbaa !8
  %7 = call i64 @bipbuf_sizeof(i32 noundef %6)
  %8 = call noalias ptr @malloc(i64 noundef %7) #6
  store ptr %8, ptr %4, align 8, !tbaa !4
  %9 = load ptr, ptr %4, align 8, !tbaa !4
  %10 = icmp ne ptr %9, null
  br i1 %10, label %12, label %11

11:                                               ; preds = %1
  store ptr null, ptr %2, align 8
  store i32 1, ptr %5, align 4
  br label %16

12:                                               ; preds = %1
  %13 = load ptr, ptr %4, align 8, !tbaa !4
  %14 = load i32, ptr %3, align 4, !tbaa !8
  call void @bipbuf_init(ptr noundef %13, i32 noundef %14)
  %15 = load ptr, ptr %4, align 8, !tbaa !4
  store ptr %15, ptr %2, align 8
  store i32 1, ptr %5, align 4
  br label %16

16:                                               ; preds = %12, %11
  call void @llvm.lifetime.end.p0(i64 8, ptr %4) #5
  %17 = load ptr, ptr %2, align 8
  ret ptr %17
}