; Function Attrs: mustprogress nofree nounwind willreturn memory(write, argmem: none, inaccessiblemem: readwrite) uwtable
define dso_local noalias noundef ptr @bipbuf_new(i32 noundef %0) local_unnamed_addr #2 {
  %2 = zext i32 %0 to i64
  %3 = add nuw nsw i64 %2, 24
  %4 = tail call noalias ptr @malloc(i64 noundef %3) #8
  %.not = icmp eq ptr %4, null
  br i1 %.not, label %10, label %5

5:                                                ; preds = %1
  %6 = getelementptr inbounds nuw i8, ptr %4, i64 16
  store i32 0, ptr %6, align 8, !tbaa !4
  %7 = getelementptr inbounds nuw i8, ptr %4, i64 12
  store i32 0, ptr %7, align 4, !tbaa !4
  %8 = getelementptr inbounds nuw i8, ptr %4, i64 8
  store i32 0, ptr %8, align 8, !tbaa !4
  store i64 %2, ptr %4, align 8, !tbaa !8
  %9 = getelementptr inbounds nuw i8, ptr %4, i64 20
  store i32 0, ptr %9, align 4, !tbaa !4
  br label %10

10:                                               ; preds = %1, %5
  ret ptr %4
}